; Function Attrs: mustprogress uwtable
define noundef nonnull align 8 dereferenceable(66) ptr @_ZN6icu_776number4impl15DecimalQuantityaSERKS2_(ptr noundef nonnull returned align 8 dereferenceable(66) %0, ptr noundef nonnull readonly align 8 dereferenceable(66) %1) local_unnamed_addr #1 align 2 {
  %3 = icmp eq ptr %0, %1
  br i1 %3, label %61, label %4

4:                                                ; preds = %2
  %5 = getelementptr inbounds nuw i8, ptr %0, i64 64
  %6 = load i8, ptr %5, align 8, !tbaa !22, !range !24, !noundef !25
  %7 = trunc nuw i8 %6 to i1
  br i1 %7, label %8, label %_ZN6icu_776number4impl15DecimalQuantity12setBcdToZeroEv.exit.i

8:                                                ; preds = %4
  %9 = getelementptr inbounds nuw i8, ptr %0, i64 48
  %10 = load ptr, ptr %9, align 8, !tbaa !26
  tail call void @uprv_free_77(ptr noundef %10)
  store i8 0, ptr %5, align 8, !tbaa !22
  br label %_ZN6icu_776number4impl15DecimalQuantity12setBcdToZeroEv.exit.i

_ZN6icu_776number4impl15DecimalQuantity12setBcdToZeroEv.exit.i: ; preds = %8, %4
  %11 = getelementptr inbounds nuw i8, ptr %0, i64 48
  store i64 0, ptr %11, align 8, !tbaa !26
  %12 = getelementptr inbounds nuw i8, ptr %0, i64 12
  store i32 0, ptr %12, align 4, !tbaa !27
  %13 = getelementptr inbounds nuw i8, ptr %0, i64 16
  store i32 0, ptr %13, align 8, !tbaa !28
  %14 = getelementptr inbounds nuw i8, ptr %0, i64 21
  store i8 0, ptr %14, align 1, !tbaa !29
  %15 = getelementptr inbounds nuw i8, ptr %0, i64 24
  store double 0.000000e+00, ptr %15, align 8, !tbaa !30
  %16 = getelementptr inbounds nuw i8, ptr %0, i64 32
  store i32 0, ptr %16, align 8, !tbaa !31
  %17 = getelementptr inbounds nuw i8, ptr %0, i64 44
  store i32 0, ptr %17, align 4, !tbaa !32
  %18 = getelementptr inbounds nuw i8, ptr %1, i64 64
  %19 = load i8, ptr %18, align 8, !tbaa !22, !range !24, !noundef !25
  %20 = trunc nuw i8 %19 to i1
  br i1 %20, label %21, label %35

21:                                               ; preds = %_ZN6icu_776number4impl15DecimalQuantity12setBcdToZeroEv.exit.i
  %22 = getelementptr inbounds nuw i8, ptr %1, i64 16
  %23 = load i32, ptr %22, align 8, !tbaa !28
  %24 = icmp eq i32 %23, 0
  br i1 %24, label %_ZN6icu_776number4impl15DecimalQuantity14ensureCapacityEi.exit.i, label %25

25:                                               ; preds = %21
  %26 = getelementptr inbounds nuw i8, ptr %0, i64 56
  %27 = sext i32 %23 to i64
  %28 = tail call noalias ptr @uprv_malloc_77(i64 noundef %27) #27
  store ptr %28, ptr %11, align 8, !tbaa !26
  store i32 %23, ptr %26, align 8, !tbaa !26
  tail call void @llvm.memset.p0.i64(ptr align 1 %28, i8 0, i64 %27, i1 false)
  store i8 1, ptr %5, align 8, !tbaa !22
  %.pre.i = load i32, ptr %22, align 8, !tbaa !28
  %29 = sext i32 %.pre.i to i64
  br label %_ZN6icu_776number4impl15DecimalQuantity14ensureCapacityEi.exit.i

_ZN6icu_776number4impl15DecimalQuantity14ensureCapacityEi.exit.i: ; preds = %25, %21
  %30 = phi i32 [ 0, %21 ], [ %.pre.i, %25 ]
  %31 = phi i64 [ 0, %21 ], [ %29, %25 ]
  %32 = phi ptr [ null, %21 ], [ %28, %25 ]
  %33 = getelementptr inbounds nuw i8, ptr %1, i64 48
  %34 = load ptr, ptr %33, align 8, !tbaa !26
  tail call void @llvm.memcpy.p0.p0.i64(ptr align 1 %32, ptr align 1 %34, i64 %31, i1 false)
  br label %_ZN6icu_776number4impl15DecimalQuantity11copyBcdFromERKS2_.exit

35:                                               ; preds = %_ZN6icu_776number4impl15DecimalQuantity12setBcdToZeroEv.exit.i
  %36 = getelementptr inbounds nuw i8, ptr %1, i64 48
  %37 = load i64, ptr %36, align 8, !tbaa !26
  store i64 %37, ptr %11, align 8, !tbaa !26
  %.phi.trans.insert = getelementptr inbounds nuw i8, ptr %1, i64 16
  %.pre = load i32, ptr %.phi.trans.insert, align 8, !tbaa !28
  br label %_ZN6icu_776number4impl15DecimalQuantity11copyBcdFromERKS2_.exit

_ZN6icu_776number4impl15DecimalQuantity11copyBcdFromERKS2_.exit: ; preds = %_ZN6icu_776number4impl15DecimalQuantity14ensureCapacityEi.exit.i, %35
  %38 = phi i32 [ %30, %_ZN6icu_776number4impl15DecimalQuantity14ensureCapacityEi.exit.i ], [ %.pre, %35 ]
  %39 = getelementptr inbounds nuw i8, ptr %1, i64 8
  %40 = load i8, ptr %39, align 8, !tbaa !17, !range !24, !noundef !25
  %41 = getelementptr inbounds nuw i8, ptr %0, i64 8
  store i8 %40, ptr %41, align 8, !tbaa !17
  %42 = getelementptr inbounds nuw i8, ptr %1, i64 36
  %43 = load i32, ptr %42, align 4, !tbaa !33
  %44 = getelementptr inbounds nuw i8, ptr %0, i64 36
  store i32 %43, ptr %44, align 4, !tbaa !33
  %45 = getelementptr inbounds nuw i8, ptr %1, i64 40
  %46 = load i32, ptr %45, align 8, !tbaa !34
  %47 = getelementptr inbounds nuw i8, ptr %0, i64 40
  store i32 %46, ptr %47, align 8, !tbaa !34
  %48 = getelementptr inbounds nuw i8, ptr %1, i64 12
  %49 = load i32, ptr %48, align 4, !tbaa !27
  store i32 %49, ptr %12, align 4, !tbaa !27
  store i32 %38, ptr %13, align 8, !tbaa !28
  %50 = getelementptr inbounds nuw i8, ptr %1, i64 20
  %51 = load i8, ptr %50, align 4, !tbaa !35
  %52 = getelementptr inbounds nuw i8, ptr %0, i64 20
  store i8 %51, ptr %52, align 4, !tbaa !35
  %53 = getelementptr inbounds nuw i8, ptr %1, i64 24
  %54 = load double, ptr %53, align 8, !tbaa !30
  store double %54, ptr %15, align 8, !tbaa !30
  %55 = getelementptr inbounds nuw i8, ptr %1, i64 32
  %56 = load i32, ptr %55, align 8, !tbaa !31
  store i32 %56, ptr %16, align 8, !tbaa !31
  %57 = getelementptr inbounds nuw i8, ptr %1, i64 21
  %58 = load i8, ptr %57, align 1, !tbaa !29
  store i8 %58, ptr %14, align 1, !tbaa !29
  %59 = getelementptr inbounds nuw i8, ptr %1, i64 44
  %60 = load i32, ptr %59, align 4, !tbaa !32
  store i32 %60, ptr %17, align 4, !tbaa !32
  br label %61

61:                                               ; preds = %2, %_ZN6icu_776number4impl15DecimalQuantity11copyBcdFromERKS2_.exit
  ret ptr %0
}